target datalayout = "e-m:e-p270:32:32-p271:32:32-p272:64:64-i64:64-i128:128-f80:128-n8:16:32:64-S128"
target triple = "x86_64-pc-linux-gnu"

%struct.slurm_conf_t = type { i64, ptr, i16, ptr, ptr, ptr, ptr, ptr, i16, ptr, ptr, ptr, ptr, ptr, ptr, ptr, i16, ptr, ptr, ptr, ptr, i16, ptr, ptr, ptr, i64, ptr, ptr, ptr, ptr, i16, ptr, ptr, i16, i32, ptr, i32, ptr, i32, i32, ptr, ptr, i64, i64, ptr, i16, i16, ptr, i32, i32, ptr, i32, ptr, i32, i16, i16, i16, ptr, i16, i16, ptr, ptr, i32, i16, i16, ptr, i32, i16, ptr, ptr, ptr, ptr, i16, ptr, ptr, ptr, ptr, i32, ptr, ptr, ptr, ptr, i16, i16, ptr, i32, i32, i32, i16, i16, ptr, ptr, i16, ptr, ptr, i32, i32, i32, i32, i32, i64, i32, i32, i16, ptr, ptr, i32, ptr, ptr, ptr, i16, i32, ptr, ptr, i16, ptr, ptr, i32, i16, ptr, ptr, ptr, ptr, i32, i32, i16, i16, i32, ptr, i16, ptr, i32, i32, i32, i32, i32, i32, ptr, i16, ptr, ptr, i32, i16, ptr, i32, i16, i16, ptr, ptr, ptr, i16, ptr, ptr, ptr, ptr, i16, i16, ptr, i16, ptr, i16, ptr, i16, ptr, i16, ptr, ptr, ptr, ptr, i16, ptr, ptr, ptr, i32, ptr, i32, ptr, ptr, i16, ptr, ptr, i32, i16, ptr, ptr, i16, i16, ptr, i16, ptr, ptr, ptr, i32, ptr, i16, i16, ptr, ptr, ptr, ptr, ptr, ptr, ptr, ptr, i16, i32, i16, ptr, ptr, ptr, ptr, i32, ptr, ptr, ptr, i16, ptr, ptr, ptr, i16, ptr, i16, ptr, i16, i16, ptr }
%struct.sockaddr_storage = type { i16, [118 x i8], i64 }

@slurm_conf = external global %struct.slurm_conf_t, align 8
@slurm_setup_addr.s_addr = internal global %struct.sockaddr_storage zeroinitializer, align 8
@.str.78 = private unnamed_addr constant [16 x i8] c"NoCtldInAddrAny\00", align 1
@.str.79 = private unnamed_addr constant [12 x i8] c"NoInAddrAny\00", align 1
@.str.80 = private unnamed_addr constant [35 x i8] c"%s: Can't get hostname or addr: %m\00", align 1
@__func__.slurm_setup_addr = private unnamed_addr constant [17 x i8] c"slurm_setup_addr\00", align 1
@.str.81 = private unnamed_addr constant [31 x i8] c"NET: %s: update address to %pA\00", align 1

; Function Attrs: nounwind uwtable
define dso_local void @slurm_setup_addr(ptr noundef %0, i16 noundef zeroext %1) #0 {
  %3 = alloca ptr, align 8
  %4 = alloca i16, align 2
  %5 = alloca ptr, align 8
  %6 = alloca [64 x i8], align 16
  store ptr %0, ptr %3, align 8
  store i16 %1, ptr %4, align 2
  %7 = load ptr, ptr %3, align 8
  call void @llvm.memset.p0.i64(ptr align 8 %7, i8 0, i64 128, i1 false)
  %8 = call zeroext i1 @slurm_addr_is_unspec(ptr noundef @slurm_setup_addr.s_addr)
  br i1 %8, label %9, label %30

9:                                                ; preds = %2
  call void @llvm.lifetime.start.p0(i64 8, ptr %5) #12
  %10 = call zeroext i1 @running_in_slurmctld()
  br i1 %10, label %11, label %12

11:                                               ; preds = %9
  store ptr @.str.78, ptr %5, align 8
  br label %13

12:                                               ; preds = %9
  store ptr @.str.79, ptr %5, align 8
  br label %13

13:                                               ; preds = %12, %11
  %14 = load ptr, ptr getelementptr inbounds nuw (%struct.slurm_conf_t, ptr @slurm_conf, i32 0, i32 32), align 8
  %15 = load ptr, ptr %5, align 8
  %16 = call ptr @xstrcasestr(ptr noundef %14, ptr noundef %15)
  %17 = icmp ne ptr %16, null
  br i1 %17, label %18, label %27

18:                                               ; preds = %13
  call void @llvm.lifetime.start.p0(i64 64, ptr %6) #12
  %19 = getelementptr inbounds [64 x i8], ptr %6, i64 0, i64 0
  %20 = call i32 @gethostname(ptr noundef %19, i64 noundef 64) #12
  %21 = icmp ne i32 %20, 0
  br i1 %21, label %25, label %22

22:                                               ; preds = %18
  %23 = load i16, ptr %4, align 2
  %24 = getelementptr inbounds [64 x i8], ptr %6, i64 0, i64 0
  call void @slurm_set_addr(ptr noundef @slurm_setup_addr.s_addr, i16 noundef zeroext %23, ptr noundef %24)
  br label %26

25:                                               ; preds = %18
  call void (ptr, ...) @fatal(ptr noundef @.str.80, ptr noundef @__func__.slurm_setup_addr) #15
  unreachable

26:                                               ; preds = %22
  call void @llvm.lifetime.end.p0(i64 64, ptr %6) #12
  br label %29

27:                                               ; preds = %13
  %28 = load i16, ptr %4, align 2
  call void @slurm_set_addr(ptr noundef @slurm_setup_addr.s_addr, i16 noundef zeroext %28, ptr noundef null)
  br label %29

29:                                               ; preds = %27, %26
  call void @llvm.lifetime.end.p0(i64 8, ptr %5) #12
  br label %30

30:                                               ; preds = %29, %2
  %31 = load ptr, ptr %3, align 8
  call void @llvm.memcpy.p0.p0.i64(ptr align 8 %31, ptr align 8 @slurm_setup_addr.s_addr, i64 128, i1 false)
  %32 = load ptr, ptr %3, align 8
  %33 = load i16, ptr %4, align 2
  call void @slurm_set_port(ptr noundef %32, i16 noundef zeroext %33)
  br label %34

34:                                               ; preds = %30
  %35 = load i64, ptr getelementptr inbounds nuw (%struct.slurm_conf_t, ptr @slurm_conf, i32 0, i32 42), align 8
  %36 = and i64 %35, 1024
  %37 = icmp ne i64 %36, 0
  br i1 %37, label %38, label %46

38:                                               ; preds = %34
  br label %39

39:                                               ; preds = %38
  %40 = call i32 @get_log_level()
  %41 = icmp sge i32 %40, 4
  br i1 %41, label %42, label %44

42:                                               ; preds = %39
  %43 = load ptr, ptr %3, align 8
  call void (i32, ptr, ...) @log_var(i32 noundef 4, ptr noundef @.str.81, ptr noundef @__func__.slurm_setup_addr, ptr noundef %43)
  br label %44

44:                                               ; preds = %42, %39
  br label %45

45:                                               ; preds = %44
  br label %46

46:                                               ; preds = %45, %34
  br label %47

47:                                               ; preds = %46
  ret void
}