; Function Attrs: nounwind uwtable
define dso_local void @slurm_setup_addr(ptr noundef initializes((0, 128)) %0, i16 noundef zeroext %1) local_unnamed_addr #1 {
  %3 = alloca [64 x i8], align 16
  tail call void @llvm.memset.p0.i64(ptr noundef nonnull align 8 dereferenceable(128) %0, i8 0, i64 128, i1 false)
  %4 = tail call zeroext i1 @slurm_addr_is_unspec(ptr noundef nonnull @slurm_setup_addr.s_addr) #19
  br i1 %4, label %5, label %14

5:                                                ; preds = %2
  %6 = tail call zeroext i1 @running_in_slurmctld() #19
  %.str.78..str.79 = select i1 %6, ptr @.str.78, ptr @.str.79
  %7 = load ptr, ptr getelementptr inbounds nuw (i8, ptr @slurm_conf, i64 256), align 8
  %8 = tail call ptr @xstrcasestr(ptr noundef %7, ptr noundef nonnull %.str.78..str.79) #19
  %.not = icmp eq ptr %8, null
  br i1 %.not, label %13, label %9

9:                                                ; preds = %5
  call void @llvm.lifetime.start.p0(i64 64, ptr nonnull %3) #19
  %10 = call i32 @gethostname(ptr noundef nonnull %3, i64 noundef 64) #19
  %.not7 = icmp eq i32 %10, 0
  br i1 %.not7, label %11, label %12

11:                                               ; preds = %9
  call void @slurm_set_addr(ptr noundef nonnull @slurm_setup_addr.s_addr, i16 noundef zeroext %1, ptr noundef nonnull %3) #19
  call void @llvm.lifetime.end.p0(i64 64, ptr nonnull %3) #19
  br label %14

12:                                               ; preds = %9
  call void (ptr, ...) @fatal(ptr noundef nonnull @.str.80, ptr noundef nonnull @__func__.slurm_setup_addr) #22
  unreachable

13:                                               ; preds = %5
  tail call void @slurm_set_addr(ptr noundef nonnull @slurm_setup_addr.s_addr, i16 noundef zeroext %1, ptr noundef null) #19
  br label %14

14:                                               ; preds = %11, %13, %2
  call void @llvm.memcpy.p0.p0.i64(ptr noundef nonnull align 8 dereferenceable(128) %0, ptr noundef nonnull align 8 dereferenceable(128) @slurm_setup_addr.s_addr, i64 128, i1 false)
  call void @slurm_set_port(ptr noundef nonnull %0, i16 noundef zeroext %1) #19
  %15 = load i64, ptr getelementptr inbounds nuw (i8, ptr @slurm_conf, i64 320), align 8
  %16 = and i64 %15, 1024
  %.not8 = icmp eq i64 %16, 0
  br i1 %.not8, label %21, label %17

17:                                               ; preds = %14
  %18 = call i32 @get_log_level() #19
  %19 = icmp sgt i32 %18, 3
  br i1 %19, label %20, label %21

20:                                               ; preds = %17
  call void (i32, ptr, ...) @log_var(i32 noundef 4, ptr noundef nonnull @.str.81, ptr noundef nonnull @__func__.slurm_setup_addr, ptr noundef nonnull %0) #19
  br label %21

21:                                               ; preds = %14, %17, %20
  ret void
}